target datalayout = "e-m:e-p270:32:32-p271:32:32-p272:64:64-i64:64-i128:128-f80:128-n8:16:32:64-S128"
target triple = "x86_64-pc-linux-gnu"

%struct.nettl_file_hdr = type { [12 x i8], [56 x i8], [20 x i8], [9 x i8], [9 x i8], i8, [8 x i8], [11 x i8], i16 }
%struct.wtap = type { ptr, ptr, i8, i32, i32, ptr, ptr, ptr, i32, ptr, ptr, ptr, ptr, ptr, ptr, ptr, ptr, ptr, ptr, i32, i32, ptr, ptr, ptr, ptr }
%struct.nettl_t = type { i8 }

@nettl_magic_hpux9 = internal constant [12 x i8] c"\00\00\00\01\00\00\00\00\00\07\D0\00", align 1
@nettl_magic_hpux10 = internal constant [12 x i8] c"TR\00d\00\00\00\00\00\00\00\80", align 1
@nettl_file_type_subtype = internal global i32 -1, align 4

; Function Attrs: alwaysinline nounwind
define internal ptr @memset.inline(ptr %0, i32 %1, i64 %2) #2 {
  %4 = alloca ptr, align 8
  %5 = alloca i32, align 4
  %6 = alloca i64, align 8
  store ptr %0, ptr %4, align 8
  store i32 %1, ptr %5, align 4
  store i64 %2, ptr %6, align 8
  %7 = load ptr, ptr %4, align 8
  %8 = load i32, ptr %5, align 4
  %9 = load i64, ptr %6, align 8
  %10 = load ptr, ptr %4, align 8
  %11 = call i64 @llvm.objectsize.i64.p0(ptr %10, i1 false, i1 true, i1 true)
  %12 = call ptr @__memset_chk(ptr noundef %7, i32 noundef %8, i64 noundef %9, i64 noundef %11) #12
  ret ptr %12
}

; Function Attrs: null_pointer_is_valid sspstrong uwtable
define hidden i32 @nettl_open(ptr noundef %0, ptr noundef %1, ptr noundef %2) #0 {
  %4 = alloca i32, align 4
  %5 = alloca ptr, align 8
  %6 = alloca ptr, align 8
  %7 = alloca ptr, align 8
  %8 = alloca %struct.nettl_file_hdr, align 2
  %9 = alloca [2 x i16], align 2
  %10 = alloca i32, align 4
  %11 = alloca ptr, align 8
  %12 = alloca i32, align 4
  %13 = alloca i64, align 8
  %14 = alloca i64, align 8
  %15 = alloca ptr, align 8
  %16 = alloca ptr, align 8
  store ptr %0, ptr %5, align 8
  store ptr %1, ptr %6, align 8
  store ptr %2, ptr %7, align 8
  call void @llvm.lifetime.start.p0(i64 128, ptr %8) #12
  call void @llvm.lifetime.start.p0(i64 4, ptr %9) #12
  call void @llvm.lifetime.start.p0(i64 4, ptr %10) #12
  call void @llvm.lifetime.start.p0(i64 8, ptr %11) #12
  %17 = call ptr @memset.inline(ptr noundef %8, i32 noundef 0, i64 noundef 128) #12
  %18 = load ptr, ptr %5, align 8
  %19 = getelementptr inbounds nuw %struct.wtap, ptr %18, i32 0, i32 0
  %20 = load ptr, ptr %19, align 8
  %21 = getelementptr inbounds nuw %struct.nettl_file_hdr, ptr %8, i32 0, i32 0
  %22 = getelementptr inbounds [12 x i8], ptr %21, i64 0, i64 0
  %23 = load ptr, ptr %6, align 8
  %24 = load ptr, ptr %7, align 8
  %25 = call zeroext i1 @wtap_read_bytes(ptr noundef %20, ptr noundef %22, i32 noundef 12, ptr noundef %23, ptr noundef %24)
  br i1 %25, label %32, label %26

26:                                               ; preds = %3
  %27 = load ptr, ptr %6, align 8
  %28 = load i32, ptr %27, align 4
  %29 = icmp ne i32 %28, -12
  br i1 %29, label %30, label %31

30:                                               ; preds = %26
  store i32 -1, ptr %4, align 4
  store i32 1, ptr %12, align 4
  br label %175

31:                                               ; preds = %26
  store i32 0, ptr %4, align 4
  store i32 1, ptr %12, align 4
  br label %175

32:                                               ; preds = %3
  %33 = getelementptr inbounds nuw %struct.nettl_file_hdr, ptr %8, i32 0, i32 0
  %34 = getelementptr inbounds [12 x i8], ptr %33, i64 0, i64 0
  %35 = call i32 @memcmp(ptr noundef %34, ptr noundef @nettl_magic_hpux9, i64 noundef 12) #13
  %36 = icmp ne i32 %35, 0
  br i1 %36, label %37, label %43

37:                                               ; preds = %32
  %38 = getelementptr inbounds nuw %struct.nettl_file_hdr, ptr %8, i32 0, i32 0
  %39 = getelementptr inbounds [12 x i8], ptr %38, i64 0, i64 0
  %40 = call i32 @memcmp(ptr noundef %39, ptr noundef @nettl_magic_hpux10, i64 noundef 12) #13
  %41 = icmp ne i32 %40, 0
  br i1 %41, label %42, label %43

42:                                               ; preds = %37
  store i32 0, ptr %4, align 4
  store i32 1, ptr %12, align 4
  br label %175

43:                                               ; preds = %37, %32
  %44 = load ptr, ptr %5, align 8
  %45 = getelementptr inbounds nuw %struct.wtap, ptr %44, i32 0, i32 0
  %46 = load ptr, ptr %45, align 8
  %47 = getelementptr inbounds nuw %struct.nettl_file_hdr, ptr %8, i32 0, i32 1
  %48 = getelementptr inbounds [56 x i8], ptr %47, i64 0, i64 0
  %49 = load ptr, ptr %6, align 8
  %50 = load ptr, ptr %7, align 8
  %51 = call zeroext i1 @wtap_read_bytes(ptr noundef %46, ptr noundef %48, i32 noundef 116, ptr noundef %49, ptr noundef %50)
  br i1 %51, label %53, label %52

52:                                               ; preds = %43
  store i32 -1, ptr %4, align 4
  store i32 1, ptr %12, align 4
  br label %175

53:                                               ; preds = %43
  %54 = load i32, ptr @nettl_file_type_subtype, align 4
  %55 = load ptr, ptr %5, align 8
  %56 = getelementptr inbounds nuw %struct.wtap, ptr %55, i32 0, i32 3
  store i32 %54, ptr %56, align 4
  call void @llvm.lifetime.start.p0(i64 8, ptr %13) #12
  store i64 1, ptr %13, align 8
  call void @llvm.lifetime.start.p0(i64 8, ptr %14) #12
  store i64 1, ptr %14, align 8
  call void @llvm.lifetime.start.p0(i64 8, ptr %15) #12
  %57 = load i64, ptr %14, align 8
  %58 = icmp eq i64 %57, 1
  br i1 %58, label %59, label %62

59:                                               ; preds = %53
  %60 = load i64, ptr %13, align 8
  %61 = call noalias ptr @g_malloc(i64 noundef %60) #14
  store ptr %61, ptr %15, align 8
  br label %83

62:                                               ; preds = %53
  %63 = load i64, ptr %13, align 8
  %64 = call i1 @llvm.is.constant.i64(i64 %63)
  br i1 %64, label %65, label %78

65:                                               ; preds = %62
  %66 = load i64, ptr %14, align 8
  %67 = icmp eq i64 %66, 0
  br i1 %67, label %73, label %68

68:                                               ; preds = %65
  %69 = load i64, ptr %13, align 8
  %70 = load i64, ptr %14, align 8
  %71 = udiv i64 -1, %70
  %72 = icmp ule i64 %69, %71
  br i1 %72, label %73, label %78

73:                                               ; preds = %68, %65
  %74 = load i64, ptr %13, align 8
  %75 = load i64, ptr %14, align 8
  %76 = mul i64 %74, %75
  %77 = call noalias ptr @g_malloc(i64 noundef %76) #14
  store ptr %77, ptr %15, align 8
  br label %82

78:                                               ; preds = %68, %62
  %79 = load i64, ptr %13, align 8
  %80 = load i64, ptr %14, align 8
  %81 = call noalias ptr @g_malloc_n(i64 noundef %79, i64 noundef %80) #15
  store ptr %81, ptr %15, align 8
  br label %82

82:                                               ; preds = %78, %73
  br label %83

83:                                               ; preds = %82, %59
  %84 = load ptr, ptr %15, align 8
  store ptr %84, ptr %16, align 8
  call void @llvm.lifetime.end.p0(i64 8, ptr %15) #12
  call void @llvm.lifetime.end.p0(i64 8, ptr %14) #12
  call void @llvm.lifetime.end.p0(i64 8, ptr %13) #12
  %85 = load ptr, ptr %16, align 8
  store ptr %85, ptr %11, align 8
  %86 = load ptr, ptr %11, align 8
  %87 = load ptr, ptr %5, align 8
  %88 = getelementptr inbounds nuw %struct.wtap, ptr %87, i32 0, i32 13
  store ptr %86, ptr %88, align 8
  %89 = getelementptr inbounds nuw %struct.nettl_file_hdr, ptr %8, i32 0, i32 4
  %90 = getelementptr [9 x i8], ptr %89, i64 0, i64 2
  %91 = load i8, ptr %90, align 1
  %92 = sext i8 %91 to i32
  %93 = icmp eq i32 %92, 49
  br i1 %93, label %94, label %103

94:                                               ; preds = %83
  %95 = getelementptr inbounds nuw %struct.nettl_file_hdr, ptr %8, i32 0, i32 4
  %96 = getelementptr [9 x i8], ptr %95, i64 0, i64 3
  %97 = load i8, ptr %96, align 1
  %98 = sext i8 %97 to i32
  %99 = icmp eq i32 %98, 49
  br i1 %99, label %100, label %103

100:                                              ; preds = %94
  %101 = load ptr, ptr %11, align 8
  %102 = getelementptr inbounds nuw %struct.nettl_t, ptr %101, i32 0, i32 0
  store i8 1, ptr %102, align 1
  br label %106

103:                                              ; preds = %94, %83
  %104 = load ptr, ptr %11, align 8
  %105 = getelementptr inbounds nuw %struct.nettl_t, ptr %104, i32 0, i32 0
  store i8 0, ptr %105, align 1
  br label %106

106:                                              ; preds = %103, %100
  %107 = load ptr, ptr %5, align 8
  %108 = getelementptr inbounds nuw %struct.wtap, ptr %107, i32 0, i32 15
  store ptr @nettl_read, ptr %108, align 8
  %109 = load ptr, ptr %5, align 8
  %110 = getelementptr inbounds nuw %struct.wtap, ptr %109, i32 0, i32 16
  store ptr @nettl_seek_read, ptr %110, align 8
  %111 = load ptr, ptr %5, align 8
  %112 = getelementptr inbounds nuw %struct.wtap, ptr %111, i32 0, i32 4
  store i32 0, ptr %112, align 8
  %113 = load ptr, ptr %5, align 8
  %114 = getelementptr inbounds nuw %struct.wtap, ptr %113, i32 0, i32 0
  %115 = load ptr, ptr %114, align 8
  %116 = getelementptr inbounds [2 x i16], ptr %9, i64 0, i64 0
  %117 = load ptr, ptr %6, align 8
  %118 = load ptr, ptr %7, align 8
  %119 = call zeroext i1 @wtap_read_bytes_or_eof(ptr noundef %115, ptr noundef %116, i32 noundef 4, ptr noundef %117, ptr noundef %118)
  br i1 %119, label %126, label %120

120:                                              ; preds = %106
  %121 = load ptr, ptr %6, align 8
  %122 = load i32, ptr %121, align 4
  %123 = icmp eq i32 %122, 0
  br i1 %123, label %124, label %125

124:                                              ; preds = %120
  store i32 0, ptr %4, align 4
  store i32 1, ptr %12, align 4
  br label %175

125:                                              ; preds = %120
  store i32 -1, ptr %4, align 4
  store i32 1, ptr %12, align 4
  br label %175

126:                                              ; preds = %106
  %127 = getelementptr [2 x i16], ptr %9, i64 0, i64 1
  %128 = load i16, ptr %127, align 2
  %129 = zext i16 %128 to i32
  %130 = ashr i32 %129, 8
  %131 = trunc i32 %130 to i16
  %132 = zext i16 %131 to i32
  %133 = getelementptr [2 x i16], ptr %9, i64 0, i64 1
  %134 = load i16, ptr %133, align 2
  %135 = zext i16 %134 to i32
  %136 = shl i32 %135, 8
  %137 = trunc i32 %136 to i16
  %138 = zext i16 %137 to i32
  %139 = or i32 %132, %138
  %140 = trunc i32 %139 to i16
  %141 = zext i16 %140 to i32
  store i32 %141, ptr %10, align 4
  %142 = load i32, ptr %10, align 4
  switch i32 %142, label %161 [
    i32 95, label %143
    i32 174, label %143
    i32 176, label %143
    i32 177, label %143
    i32 31, label %146
    i32 187, label %146
    i32 9, label %149
    i32 2, label %149
    i32 6, label %149
    i32 8, label %149
    i32 244, label %149
    i32 23, label %152
    i32 245, label %155
    i32 267, label %158
  ]

143:                                              ; preds = %126, %126, %126, %126
  %144 = load ptr, ptr %5, align 8
  %145 = getelementptr inbounds nuw %struct.wtap, ptr %144, i32 0, i32 19
  store i32 73, ptr %145, align 8
  br label %164

146:                                              ; preds = %126, %126
  %147 = load ptr, ptr %5, align 8
  %148 = getelementptr inbounds nuw %struct.wtap, ptr %147, i32 0, i32 19
  store i32 72, ptr %148, align 8
  br label %164

149:                                              ; preds = %126, %126, %126, %126, %126
  %150 = load ptr, ptr %5, align 8
  %151 = getelementptr inbounds nuw %struct.wtap, ptr %150, i32 0, i32 19
  store i32 70, ptr %151, align 8
  br label %164

152:                                              ; preds = %126
  %153 = load ptr, ptr %5, align 8
  %154 = getelementptr inbounds nuw %struct.wtap, ptr %153, i32 0, i32 19
  store i32 64, ptr %154, align 8
  br label %164

155:                                              ; preds = %126
  %156 = load ptr, ptr %5, align 8
  %157 = getelementptr inbounds nuw %struct.wtap, ptr %156, i32 0, i32 19
  store i32 65, ptr %157, align 8
  br label %164

158:                                              ; preds = %126
  %159 = load ptr, ptr %5, align 8
  %160 = getelementptr inbounds nuw %struct.wtap, ptr %159, i32 0, i32 19
  store i32 94, ptr %160, align 8
  br label %164

161:                                              ; preds = %126
  %162 = load ptr, ptr %5, align 8
  %163 = getelementptr inbounds nuw %struct.wtap, ptr %162, i32 0, i32 19
  store i32 71, ptr %163, align 8
  br label %164

164:                                              ; preds = %161, %158, %155, %152, %149, %146, %143
  %165 = load ptr, ptr %5, align 8
  %166 = getelementptr inbounds nuw %struct.wtap, ptr %165, i32 0, i32 0
  %167 = load ptr, ptr %166, align 8
  %168 = load ptr, ptr %6, align 8
  %169 = call i64 @file_seek(ptr noundef %167, i64 noundef 128, i32 noundef 0, ptr noundef %168)
  %170 = icmp eq i64 %169, -1
  br i1 %170, label %171, label %172

171:                                              ; preds = %164
  store i32 -1, ptr %4, align 4
  store i32 1, ptr %12, align 4
  br label %175

172:                                              ; preds = %164
  %173 = load ptr, ptr %5, align 8
  %174 = getelementptr inbounds nuw %struct.wtap, ptr %173, i32 0, i32 20
  store i32 6, ptr %174, align 4
  store i32 1, ptr %4, align 4
  store i32 1, ptr %12, align 4
  br label %175

175:                                              ; preds = %172, %171, %125, %124, %52, %42, %31, %30
  call void @llvm.lifetime.end.p0(i64 8, ptr %11) #12
  call void @llvm.lifetime.end.p0(i64 4, ptr %10) #12
  call void @llvm.lifetime.end.p0(i64 4, ptr %9) #12
  call void @llvm.lifetime.end.p0(i64 128, ptr %8) #12
  %176 = load i32, ptr %4, align 4
  ret i32 %176
}