; Function Attrs: null_pointer_is_valid sspstrong uwtable
define hidden range(i32 -1, 2) i32 @nettl_open(ptr noundef captures(none) %0, ptr noundef %1, ptr noundef %2) local_unnamed_addr #0 {
  %4 = alloca %struct.nettl_file_hdr, align 2
  %5 = alloca [2 x i16], align 2
  call void @llvm.lifetime.start.p0(i64 128, ptr nonnull %4) #9
  call void @llvm.lifetime.start.p0(i64 4, ptr nonnull %5) #9
  call void @llvm.memset.p0.i64(ptr noundef nonnull align 2 dereferenceable(128) %4, i8 noundef 0, i64 noundef 128, i1 noundef false) #9
  %6 = load ptr, ptr %0, align 8
  %7 = call zeroext i1 @wtap_read_bytes(ptr noundef %6, ptr noundef nonnull %4, i32 noundef 12, ptr noundef %1, ptr noundef %2)
  br i1 %7, label %10, label %8

8:                                                ; preds = %3
  %9 = load i32, ptr %1, align 4
  %.not = icmp ne i32 %9, -12
  %. = sext i1 %.not to i32
  br label %51

10:                                               ; preds = %3
  %bcmp = call i32 @bcmp(ptr noundef nonnull dereferenceable(12) %4, ptr noundef nonnull dereferenceable(12) @nettl_magic_hpux9, i64 12)
  %.not47 = icmp eq i32 %bcmp, 0
  br i1 %.not47, label %12, label %11

11:                                               ; preds = %10
  %bcmp48 = call i32 @bcmp(ptr noundef nonnull dereferenceable(12) %4, ptr noundef nonnull dereferenceable(12) @nettl_magic_hpux10, i64 12)
  %.not49 = icmp eq i32 %bcmp48, 0
  br i1 %.not49, label %12, label %51

12:                                               ; preds = %11, %10
  %13 = load ptr, ptr %0, align 8
  %14 = getelementptr inbounds nuw i8, ptr %4, i64 12
  %15 = call zeroext i1 @wtap_read_bytes(ptr noundef %13, ptr noundef nonnull %14, i32 noundef 116, ptr noundef %1, ptr noundef %2)
  br i1 %15, label %16, label %51

16:                                               ; preds = %12
  %17 = load i32, ptr @nettl_file_type_subtype, align 4
  %18 = getelementptr inbounds nuw i8, ptr %0, i64 20
  store i32 %17, ptr %18, align 4
  %19 = call noalias dereferenceable_or_null(1) ptr @g_malloc(i64 noundef 1) #10
  %20 = getelementptr inbounds nuw i8, ptr %0, i64 96
  store ptr %19, ptr %20, align 8
  %21 = getelementptr inbounds nuw i8, ptr %4, i64 99
  %22 = load i8, ptr %21, align 1
  %23 = icmp eq i8 %22, 49
  %24 = getelementptr inbounds nuw i8, ptr %4, i64 100
  %25 = load i8, ptr %24, align 2
  %26 = icmp eq i8 %25, 49
  %or.cond = select i1 %23, i1 %26, i1 false
  %storemerge = zext i1 %or.cond to i8
  store i8 %storemerge, ptr %19, align 1
  %27 = getelementptr inbounds nuw i8, ptr %0, i64 112
  store ptr @nettl_read, ptr %27, align 8
  %28 = getelementptr inbounds nuw i8, ptr %0, i64 120
  store ptr @nettl_seek_read, ptr %28, align 8
  %29 = getelementptr inbounds nuw i8, ptr %0, i64 24
  store i32 0, ptr %29, align 8
  %30 = load ptr, ptr %0, align 8
  %31 = call zeroext i1 @wtap_read_bytes_or_eof(ptr noundef %30, ptr noundef nonnull %5, i32 noundef 4, ptr noundef %1, ptr noundef %2)
  br i1 %31, label %35, label %32

32:                                               ; preds = %16
  %33 = load i32, ptr %1, align 4
  %34 = icmp ne i32 %33, 0
  %.50 = sext i1 %34 to i32
  br label %51

35:                                               ; preds = %16
  %36 = getelementptr inbounds nuw i8, ptr %5, i64 2
  %37 = load i16, ptr %36, align 2
  %rev = call i16 @llvm.bswap.i16(i16 %37)
  switch i16 %rev, label %43 [
    i16 95, label %44
    i16 174, label %44
    i16 176, label %44
    i16 177, label %44
    i16 31, label %38
    i16 187, label %38
    i16 9, label %39
    i16 2, label %39
    i16 6, label %39
    i16 8, label %39
    i16 244, label %39
    i16 23, label %40
    i16 245, label %41
    i16 267, label %42
  ]

38:                                               ; preds = %35, %35
  br label %44

39:                                               ; preds = %35, %35, %35, %35, %35
  br label %44

40:                                               ; preds = %35
  br label %44

41:                                               ; preds = %35
  br label %44

42:                                               ; preds = %35
  br label %44

43:                                               ; preds = %35
  br label %44

44:                                               ; preds = %35, %35, %35, %35, %43, %42, %41, %40, %39, %38
  %.sink = phi i32 [ 71, %43 ], [ 94, %42 ], [ 65, %41 ], [ 64, %40 ], [ 70, %39 ], [ 72, %38 ], [ 73, %35 ], [ 73, %35 ], [ 73, %35 ], [ 73, %35 ]
  %45 = getelementptr inbounds nuw i8, ptr %0, i64 144
  store i32 %.sink, ptr %45, align 8
  %46 = load ptr, ptr %0, align 8
  %47 = call i64 @file_seek(ptr noundef %46, i64 noundef 128, i32 noundef 0, ptr noundef %1)
  %48 = icmp eq i64 %47, -1
  br i1 %48, label %51, label %49

49:                                               ; preds = %44
  %50 = getelementptr inbounds nuw i8, ptr %0, i64 148
  store i32 6, ptr %50, align 4
  br label %51

51:                                               ; preds = %44, %32, %12, %11, %8, %49
  %.0 = phi i32 [ 1, %49 ], [ %., %8 ], [ 0, %11 ], [ -1, %12 ], [ %.50, %32 ], [ -1, %44 ]
  call void @llvm.lifetime.end.p0(i64 4, ptr nonnull %5) #9
  call void @llvm.lifetime.end.p0(i64 128, ptr nonnull %4) #9
  ret i32 %.0
}